; Function Attrs: nounwind sspstrong uwtable
define internal noundef i64 @drop_i(i64 %0, i64 noundef %1, i32 noundef %2, ptr noundef %3, i64 %4) #0 {
  %6 = inttoptr i64 %1 to ptr
  %7 = getelementptr inbounds nuw i8, ptr %6, i64 32
  %8 = load i64, ptr %7, align 8, !tbaa !22
  %9 = icmp eq i64 %8, 0
  br i1 %9, label %10, label %19

10:                                               ; preds = %5
  %11 = getelementptr inbounds nuw i8, ptr %6, i64 16
  %12 = load i64, ptr %11, align 8, !tbaa !60
  switch i32 %2, label %15 [
    i32 0, label %rb_enum_values_pack.exit
    i32 1, label %13
  ]

13:                                               ; preds = %10
  %14 = load i64, ptr %3, align 8, !tbaa !7
  br label %rb_enum_values_pack.exit

15:                                               ; preds = %10
  %16 = sext i32 %2 to i64
  %17 = tail call i64 @rb_ary_new_from_values(i64 noundef %16, ptr noundef %3) #14
  br label %rb_enum_values_pack.exit

rb_enum_values_pack.exit:                         ; preds = %10, %13, %15
  %.0.i = phi i64 [ %14, %13 ], [ %17, %15 ], [ 4, %10 ]
  %18 = tail call i64 @rb_ary_push(i64 noundef %12, i64 noundef %.0.i) #14
  br label %21

19:                                               ; preds = %5
  %20 = add i64 %8, -1
  store i64 %20, ptr %7, align 8, !tbaa !22
  br label %21

21:                                               ; preds = %19, %rb_enum_values_pack.exit
  ret i64 4
}